; Function Attrs: mustprogress uwtable
define hidden noundef zeroext i1 @_ZN4cvc58internal6theory11quantifiers12Instantiator16processEqualTermEPNS2_15CegInstantiatorERNS2_10SolvedFormENS0_12NodeTemplateILb1EEERNS2_14TermPropertiesES9_NS2_13CegInstEffortE(ptr nonnull readnone align 8 captures(none) %0, ptr noundef %1, ptr noundef nonnull align 8 dereferenceable(120) %2, ptr noundef readonly captures(none) %3, ptr noundef nonnull align 8 dereferenceable(24) initializes((8, 12)) %4, ptr noundef readonly captures(none) %5, i32 %6) unnamed_addr #3 align 2 personality ptr @__gxx_personality_v0 {
  %8 = alloca %"class.cvc5::internal::NodeTemplate", align 8
  %9 = alloca %"class.cvc5::internal::NodeTemplate", align 8
  %10 = getelementptr inbounds nuw i8, ptr %4, i64 8
  store i32 1, ptr %10, align 8, !tbaa !18
  %11 = load ptr, ptr %3, align 8, !tbaa !22
  store ptr %11, ptr %8, align 8, !tbaa !22
  %12 = load i64, ptr %11, align 8
  %13 = lshr i64 %12, 40
  %14 = trunc nuw nsw i64 %13 to i32
  %15 = and i32 %14, 1048575
  %16 = icmp samesign ult i32 %15, 1048574
  br i1 %16, label %17, label %22, !prof !11

17:                                               ; preds = %7
  %18 = add i64 %12, 1099511627776
  %19 = and i64 %18, 1152920405095219200
  %20 = and i64 %12, -1152920405095219201
  %21 = or disjoint i64 %19, %20
  store i64 %21, ptr %11, align 8
  br label %_ZN4cvc58internal12NodeTemplateILb1EEC2ERKS2_.exit

22:                                               ; preds = %7
  %23 = icmp eq i32 %15, 1048574
  br i1 %23, label %24, label %_ZN4cvc58internal12NodeTemplateILb1EEC2ERKS2_.exit, !prof !12

24:                                               ; preds = %22
  %25 = or i64 %12, 1152920405095219200
  store i64 %25, ptr %11, align 8
  tail call void @_ZN4cvc58internal4expr9NodeValue20markRefCountMaxedOutEv(ptr noundef nonnull align 8 dereferenceable(24) %11)
  br label %_ZN4cvc58internal12NodeTemplateILb1EEC2ERKS2_.exit

_ZN4cvc58internal12NodeTemplateILb1EEC2ERKS2_.exit: ; preds = %17, %22, %24
  %26 = load ptr, ptr %5, align 8, !tbaa !22
  store ptr %26, ptr %9, align 8, !tbaa !22
  %27 = load i64, ptr %26, align 8
  %28 = lshr i64 %27, 40
  %29 = trunc nuw nsw i64 %28 to i32
  %30 = and i32 %29, 1048575
  %31 = icmp samesign ult i32 %30, 1048574
  br i1 %31, label %32, label %37, !prof !11

32:                                               ; preds = %_ZN4cvc58internal12NodeTemplateILb1EEC2ERKS2_.exit
  %33 = add i64 %27, 1099511627776
  %34 = and i64 %33, 1152920405095219200
  %35 = and i64 %27, -1152920405095219201
  %36 = or disjoint i64 %34, %35
  store i64 %36, ptr %26, align 8
  br label %_ZN4cvc58internal12NodeTemplateILb1EEC2ERKS2_.exit7

37:                                               ; preds = %_ZN4cvc58internal12NodeTemplateILb1EEC2ERKS2_.exit
  %38 = icmp eq i32 %30, 1048574
  br i1 %38, label %39, label %_ZN4cvc58internal12NodeTemplateILb1EEC2ERKS2_.exit7, !prof !12

39:                                               ; preds = %37
  %40 = or i64 %27, 1152920405095219200
  store i64 %40, ptr %26, align 8
  invoke void @_ZN4cvc58internal4expr9NodeValue20markRefCountMaxedOutEv(ptr noundef nonnull align 8 dereferenceable(24) %26)
          to label %_ZN4cvc58internal12NodeTemplateILb1EEC2ERKS2_.exit7 unwind label %69

_ZN4cvc58internal12NodeTemplateILb1EEC2ERKS2_.exit7: ; preds = %37, %32, %39
  %41 = invoke noundef zeroext i1 @_ZN4cvc58internal6theory11quantifiers15CegInstantiator25constructInstantiationIncENS0_12NodeTemplateILb1EEES5_RNS2_14TermPropertiesERNS2_10SolvedFormEb(ptr noundef nonnull align 8 dereferenceable(1000) %1, ptr noundef nonnull %8, ptr noundef nonnull %9, ptr noundef nonnull align 8 dereferenceable(24) %4, ptr noundef nonnull align 8 dereferenceable(120) %2, i1 noundef zeroext false)
          to label %42 unwind label %71

42:                                               ; preds = %_ZN4cvc58internal12NodeTemplateILb1EEC2ERKS2_.exit7
  %43 = load ptr, ptr %9, align 8, !tbaa !22
  %44 = load i64, ptr %43, align 8
  %45 = and i64 %44, 1152920405095219200
  %.not.i.i = icmp eq i64 %45, 1152920405095219200
  br i1 %.not.i.i, label %_ZN4cvc58internal12NodeTemplateILb1EED2Ev.exit, label %46, !prof !12

46:                                               ; preds = %42
  %47 = add i64 %44, 1152920405095219200
  %48 = and i64 %47, 1152920405095219200
  %49 = and i64 %44, -1152920405095219201
  %50 = or disjoint i64 %48, %49
  store i64 %50, ptr %43, align 8
  %51 = icmp eq i64 %48, 0
  br i1 %51, label %52, label %_ZN4cvc58internal12NodeTemplateILb1EED2Ev.exit, !prof !12

52:                                               ; preds = %46
  invoke void @_ZN4cvc58internal4expr9NodeValue15markForDeletionEv(ptr noundef nonnull align 8 dereferenceable(24) %43)
          to label %_ZN4cvc58internal12NodeTemplateILb1EED2Ev.exit unwind label %53

53:                                               ; preds = %52
  %54 = landingpad { ptr, i32 }
          catch ptr null
  %55 = extractvalue { ptr, i32 } %54, 0
  call void @__clang_call_terminate(ptr %55) #15
  unreachable

_ZN4cvc58internal12NodeTemplateILb1EED2Ev.exit:   ; preds = %42, %46, %52
  %56 = load ptr, ptr %8, align 8, !tbaa !22
  %57 = load i64, ptr %56, align 8
  %58 = and i64 %57, 1152920405095219200
  %.not.i.i8 = icmp eq i64 %58, 1152920405095219200
  br i1 %.not.i.i8, label %_ZN4cvc58internal12NodeTemplateILb1EED2Ev.exit9, label %59, !prof !12

59:                                               ; preds = %_ZN4cvc58internal12NodeTemplateILb1EED2Ev.exit
  %60 = add i64 %57, 1152920405095219200
  %61 = and i64 %60, 1152920405095219200
  %62 = and i64 %57, -1152920405095219201
  %63 = or disjoint i64 %61, %62
  store i64 %63, ptr %56, align 8
  %64 = icmp eq i64 %61, 0
  br i1 %64, label %65, label %_ZN4cvc58internal12NodeTemplateILb1EED2Ev.exit9, !prof !12

65:                                               ; preds = %59
  invoke void @_ZN4cvc58internal4expr9NodeValue15markForDeletionEv(ptr noundef nonnull align 8 dereferenceable(24) %56)
          to label %_ZN4cvc58internal12NodeTemplateILb1EED2Ev.exit9 unwind label %66

66:                                               ; preds = %65
  %67 = landingpad { ptr, i32 }
          catch ptr null
  %68 = extractvalue { ptr, i32 } %67, 0
  call void @__clang_call_terminate(ptr %68) #15
  unreachable

_ZN4cvc58internal12NodeTemplateILb1EED2Ev.exit9:  ; preds = %_ZN4cvc58internal12NodeTemplateILb1EED2Ev.exit, %59, %65
  ret i1 %41

69:                                               ; preds = %39
  %70 = landingpad { ptr, i32 }
          cleanup
  br label %73

71:                                               ; preds = %_ZN4cvc58internal12NodeTemplateILb1EEC2ERKS2_.exit7
  %72 = landingpad { ptr, i32 }
          cleanup
  call void @_ZN4cvc58internal12NodeTemplateILb1EED2Ev(ptr noundef nonnull align 8 dereferenceable(8) %9) #14
  br label %73

73:                                               ; preds = %71, %69
  %.pn = phi { ptr, i32 } [ %72, %71 ], [ %70, %69 ]
  call void @_ZN4cvc58internal12NodeTemplateILb1EED2Ev(ptr noundef nonnull align 8 dereferenceable(8) %8) #14
  resume { ptr, i32 } %.pn
}